; Function Attrs: mustprogress nofree norecurse nosync nounwind willreturn memory(argmem: readwrite) uwtable
define hidden noundef zeroext i1 @_ZN4cvc58internal6theory11quantifiers17InstStrategyCegqi13checkCompleteERNS1_12IncompleteIdE(ptr noundef nonnull readonly align 8 captures(none) dereferenceable(560) %0, ptr noundef nonnull writeonly align 4 captures(none) dereferenceable(4) %1) unnamed_addr #12 align 2 {
  %3 = getelementptr inbounds nuw i8, ptr %0, i64 57
  %4 = load i8, ptr %3, align 1, !tbaa !83, !range !340, !noundef !341
  %5 = trunc nuw i8 %4 to i1
  br i1 %5, label %6, label %7

6:                                                ; preds = %2
  store i32 6, ptr %1, align 4, !tbaa !516
  br label %7

7:                                                ; preds = %2, %6
  %.0 = xor i1 %5, true
  ret i1 %.0
}